target datalayout = "e-m:e-p270:32:32-p271:32:32-p272:64:64-i64:64-i128:128-f80:128-n8:16:32:64-S128"
target triple = "x86_64-pc-linux-gnu"

%"class.gmx::BiasState" = type { %"class.gmx::CoordState", %"class.std::vector", %"class.std::vector.0", %"class.gmx::HistogramSize", [4 x i32], [4 x i32], ptr, %"class.std::vector.5", %"class.std::vector.7" }
%"class.gmx::CoordState" = type { [4 x double], i32, i32 }
%"class.std::vector" = type { %"struct.std::_Vector_base" }
%"struct.std::_Vector_base" = type { %"struct.std::_Vector_base<gmx::PointState, std::allocator<gmx::PointState>>::_Vector_impl" }
%"struct.std::_Vector_base<gmx::PointState, std::allocator<gmx::PointState>>::_Vector_impl" = type { %"struct.std::_Vector_base<gmx::PointState, std::allocator<gmx::PointState>>::_Vector_impl_data" }
%"struct.std::_Vector_base<gmx::PointState, std::allocator<gmx::PointState>>::_Vector_impl_data" = type { ptr, ptr, ptr }
%"class.std::vector.0" = type { %"struct.std::_Vector_base.1" }
%"struct.std::_Vector_base.1" = type { %"struct.std::_Vector_base<double, std::allocator<double>>::_Vector_impl" }
%"struct.std::_Vector_base<double, std::allocator<double>>::_Vector_impl" = type { %"struct.std::_Vector_base<double, std::allocator<double>>::_Vector_impl_data" }
%"struct.std::_Vector_base<double, std::allocator<double>>::_Vector_impl_data" = type { ptr, ptr, ptr }
%"class.gmx::HistogramSize" = type <{ i64, double, i8, [7 x i8], double, i8, [7 x i8], double, double, i8, [7 x i8] }>
%"class.std::vector.5" = type { %"struct.std::_Vector_base.6" }
%"struct.std::_Vector_base.6" = type { %"struct.std::_Vector_base<double, gmx::DefaultInitializationAllocator<double>>::_Vector_impl" }
%"struct.std::_Vector_base<double, gmx::DefaultInitializationAllocator<double>>::_Vector_impl" = type { %"struct.std::_Vector_base<double, gmx::DefaultInitializationAllocator<double>>::_Vector_impl_data" }
%"struct.std::_Vector_base<double, gmx::DefaultInitializationAllocator<double>>::_Vector_impl_data" = type { ptr, ptr, ptr }
%"class.std::vector.7" = type { %"struct.std::_Vector_base.8" }
%"struct.std::_Vector_base.8" = type { %"struct.std::_Vector_base<std::vector<double>, std::allocator<std::vector<double>>>::_Vector_impl" }
%"struct.std::_Vector_base<std::vector<double>, std::allocator<std::vector<double>>>::_Vector_impl" = type { %"struct.std::_Vector_base<std::vector<double>, std::allocator<std::vector<double>>>::_Vector_impl_data" }
%"struct.std::_Vector_base<std::vector<double>, std::allocator<std::vector<double>>>::_Vector_impl_data" = type { ptr, ptr, ptr }
%"class.gmx::BiasParams" = type <{ double, i64, i32, [4 x i8], i64, i64, i32, i8, [3 x i8], double, double, double, i8, [3 x i8], i32, double, double, double, double, [4 x i32], i8, [3 x i8], i32, i8, [7 x i8] }>

; Function Attrs: mustprogress nounwind uwtable
define linkonce_odr noundef zeroext i1 @_ZNK3gmx13HistogramSize14inInitialStageEv(ptr noundef nonnull align 8 dereferenceable(57) %0) #2 comdat align 2 {
  %2 = alloca ptr, align 8
  store ptr %0, ptr %2, align 8, !tbaa !331
  %3 = load ptr, ptr %2, align 8
  %4 = getelementptr inbounds nuw %"class.gmx::HistogramSize", ptr %3, i32 0, i32 2
  %5 = load i8, ptr %4, align 8, !tbaa !333, !range !134, !noundef !135
  %6 = trunc i8 %5 to i1
  ret i1 %6
}

; Function Attrs: mustprogress nounwind uwtable
define internal void @_ZN3gmx12_GLOBAL__N_130setHistogramUpdateScaleFactorsERKNS_10BiasParamsEddPdS4_(ptr noundef nonnull align 8 dereferenceable(137) %0, double noundef %1, double noundef %2, ptr noundef %3, ptr noundef %4) #2 {
  %6 = alloca ptr, align 8
  %7 = alloca double, align 8
  %8 = alloca double, align 8
  %9 = alloca ptr, align 8
  %10 = alloca ptr, align 8
  store ptr %0, ptr %6, align 8, !tbaa !276
  store double %1, ptr %7, align 8, !tbaa !39
  store double %2, ptr %8, align 8, !tbaa !39
  store ptr %3, ptr %9, align 8, !tbaa !59
  store ptr %4, ptr %10, align 8, !tbaa !59
  %11 = load double, ptr %7, align 8, !tbaa !39
  %12 = load double, ptr %8, align 8, !tbaa !39
  %13 = load ptr, ptr %6, align 8, !tbaa !276
  %14 = getelementptr inbounds nuw %"class.gmx::BiasParams", ptr %13, i32 0, i32 15
  %15 = load double, ptr %14, align 8, !tbaa !383
  %16 = load ptr, ptr %6, align 8, !tbaa !276
  %17 = getelementptr inbounds nuw %"class.gmx::BiasParams", ptr %16, i32 0, i32 16
  %18 = load double, ptr %17, align 8, !tbaa !384
  %19 = call double @llvm.fmuladd.f64(double %15, double %18, double %12)
  %20 = fdiv double %11, %19
  %21 = load ptr, ptr %9, align 8, !tbaa !59
  store double %20, ptr %21, align 8, !tbaa !39
  %22 = load double, ptr %7, align 8, !tbaa !39
  %23 = load double, ptr %8, align 8, !tbaa !39
  %24 = load ptr, ptr %6, align 8, !tbaa !276
  %25 = getelementptr inbounds nuw %"class.gmx::BiasParams", ptr %24, i32 0, i32 15
  %26 = load double, ptr %25, align 8, !tbaa !383
  %27 = fadd double %23, %26
  %28 = fdiv double %22, %27
  %29 = call double @log(double noundef %28) #28, !tbaa !46
  %30 = load ptr, ptr %10, align 8, !tbaa !59
  store double %29, ptr %30, align 8, !tbaa !39
  ret void
}

; Function Attrs: mustprogress nounwind uwtable
define linkonce_odr noundef double @_ZNK3gmx13HistogramSize13histogramSizeEv(ptr noundef nonnull align 8 dereferenceable(57) %0) #2 comdat align 2 {
  %2 = alloca ptr, align 8
  store ptr %0, ptr %2, align 8, !tbaa !331
  %3 = load ptr, ptr %2, align 8
  %4 = getelementptr inbounds nuw %"class.gmx::HistogramSize", ptr %3, i32 0, i32 1
  %5 = load double, ptr %4, align 8, !tbaa !382
  ret double %5
}

; Function Attrs: mustprogress uwtable
define linkonce_odr noundef zeroext i1 @_ZNK3gmx9BiasState14inInitialStageEv(ptr noundef nonnull align 8 dereferenceable(240) %0) #0 comdat align 2 {
  %2 = alloca ptr, align 8
  store ptr %0, ptr %2, align 8, !tbaa !4
  %3 = load ptr, ptr %2, align 8
  %4 = getelementptr inbounds nuw %"class.gmx::BiasState", ptr %3, i32 0, i32 3
  %5 = call noundef zeroext i1 @_ZNK3gmx13HistogramSize14inInitialStageEv(ptr noundef nonnull align 8 dereferenceable(57) %4)
  ret i1 %5
}

; Function Attrs: mustprogress uwtable
define void @_ZNK3gmx9BiasState37getSkippedUpdateHistogramScaleFactorsERKNS_10BiasParamsEPdS4_(ptr noundef nonnull align 8 dereferenceable(240) %0, ptr noundef nonnull align 8 dereferenceable(137) %1, ptr noundef %2, ptr noundef %3) #0 align 2 {
  %5 = alloca ptr, align 8
  %6 = alloca ptr, align 8
  %7 = alloca ptr, align 8
  %8 = alloca ptr, align 8
  %9 = alloca double, align 8
  store ptr %0, ptr %5, align 8, !tbaa !4
  store ptr %1, ptr %6, align 8, !tbaa !276
  store ptr %2, ptr %7, align 8, !tbaa !59
  store ptr %3, ptr %8, align 8, !tbaa !59
  %10 = load ptr, ptr %5, align 8
  %11 = call noundef zeroext i1 @_ZNK3gmx9BiasState14inInitialStageEv(ptr noundef nonnull align 8 dereferenceable(240) %10)
  br i1 %11, label %12, label %20

12:                                               ; preds = %4
  call void @llvm.lifetime.start.p0(i64 8, ptr %9) #28
  %13 = getelementptr inbounds nuw %"class.gmx::BiasState", ptr %10, i32 0, i32 3
  %14 = call noundef double @_ZNK3gmx13HistogramSize13histogramSizeEv(ptr noundef nonnull align 8 dereferenceable(57) %13)
  store double %14, ptr %9, align 8, !tbaa !39
  %15 = load ptr, ptr %6, align 8, !tbaa !276
  %16 = load double, ptr %9, align 8, !tbaa !39
  %17 = load double, ptr %9, align 8, !tbaa !39
  %18 = load ptr, ptr %7, align 8, !tbaa !59
  %19 = load ptr, ptr %8, align 8, !tbaa !59
  call void @_ZN3gmx12_GLOBAL__N_130setHistogramUpdateScaleFactorsERKNS_10BiasParamsEddPdS4_(ptr noundef nonnull align 8 dereferenceable(137) %15, double noundef %16, double noundef %17, ptr noundef %18, ptr noundef %19)
  call void @llvm.lifetime.end.p0(i64 8, ptr %9) #28
  br label %23

20:                                               ; preds = %4
  %21 = load ptr, ptr %7, align 8, !tbaa !59
  store double 1.000000e+00, ptr %21, align 8, !tbaa !39
  %22 = load ptr, ptr %8, align 8, !tbaa !59
  store double 0.000000e+00, ptr %22, align 8, !tbaa !39
  br label %23

23:                                               ; preds = %20, %12
  ret void
}