; Function Attrs: mustprogress nofree nounwind willreturn memory(write, argmem: readwrite) uwtable
define void @_ZNK3gmx9BiasState37getSkippedUpdateHistogramScaleFactorsERKNS_10BiasParamsEPdS4_(ptr noundef nonnull readonly align 8 captures(none) dereferenceable(240) %0, ptr noundef nonnull readonly align 8 captures(none) dereferenceable(137) %1, ptr noundef writeonly captures(none) initializes((0, 8)) %2, ptr noundef writeonly captures(none) initializes((0, 8)) %3) local_unnamed_addr #19 align 2 {
  %5 = getelementptr inbounds nuw i8, ptr %0, i64 104
  %6 = load i8, ptr %5, align 8, !tbaa !104, !range !37, !noundef !38
  %7 = trunc nuw i8 %6 to i1
  br i1 %7, label %8, label %21

8:                                                ; preds = %4
  %9 = getelementptr inbounds nuw i8, ptr %0, i64 96
  %10 = load double, ptr %9, align 8, !tbaa !176
  %11 = getelementptr inbounds nuw i8, ptr %1, i64 80
  %12 = load double, ptr %11, align 8, !tbaa !177
  %13 = getelementptr inbounds nuw i8, ptr %1, i64 88
  %14 = load double, ptr %13, align 8, !tbaa !178
  %15 = tail call double @llvm.fmuladd.f64(double %12, double %14, double %10)
  %16 = fdiv double %10, %15
  store double %16, ptr %2, align 8, !tbaa !40
  %17 = load double, ptr %11, align 8, !tbaa !177
  %18 = fadd double %10, %17
  %19 = fdiv double %10, %18
  %20 = tail call double @log(double noundef %19) #33, !tbaa !30
  br label %22

21:                                               ; preds = %4
  store double 1.000000e+00, ptr %2, align 8, !tbaa !40
  br label %22

22:                                               ; preds = %21, %8
  %storemerge = phi double [ 0.000000e+00, %21 ], [ %20, %8 ]
  store double %storemerge, ptr %3, align 8, !tbaa !40
  ret void
}